target datalayout = "e-m:e-p270:32:32-p271:32:32-p272:64:64-i64:64-i128:128-f80:128-n8:16:32:64-S128"
target triple = "x86_64-pc-linux-gnu"

%struct.option = type { i32, i32, ptr, ptr, ptr, ptr, i32, ptr, i64, ptr, i64, ptr }

@.str = private unnamed_addr constant [6 x i8] c"force\00", align 1
@.str.1 = private unnamed_addr constant [35 x i8] c"update the info files from scratch\00", align 1
@update_server_info_usage = internal constant [2 x ptr] [ptr @.str.2, ptr null], align 16
@the_repository = external global ptr, align 8
@.str.2 = private unnamed_addr constant [38 x i8] c"git update-server-info [-f | --force]\00", align 1

; Function Attrs: nounwind uwtable
define dso_local i32 @cmd_update_server_info(i32 noundef %0, ptr noundef %1, ptr noundef %2, ptr noundef %3) #0 {
  %5 = alloca i32, align 4
  %6 = alloca ptr, align 8
  %7 = alloca ptr, align 8
  %8 = alloca ptr, align 8
  %9 = alloca i32, align 4
  %10 = alloca [2 x %struct.option], align 16
  store i32 %0, ptr %5, align 4, !tbaa !4
  store ptr %1, ptr %6, align 8, !tbaa !8
  store ptr %2, ptr %7, align 8, !tbaa !11
  store ptr %3, ptr %8, align 8, !tbaa !13
  call void @llvm.lifetime.start.p0(i64 4, ptr %9) #6
  store i32 0, ptr %9, align 4, !tbaa !4
  call void @llvm.lifetime.start.p0(i64 176, ptr %10) #6
  call void @llvm.memset.p0.i64(ptr align 16 %10, i8 0, i64 176, i1 false)
  %11 = getelementptr inbounds nuw %struct.option, ptr %10, i32 0, i32 0
  store i32 8, ptr %11, align 8, !tbaa !15
  %12 = getelementptr inbounds nuw %struct.option, ptr %10, i32 0, i32 1
  store i32 102, ptr %12, align 4, !tbaa !18
  %13 = getelementptr inbounds nuw %struct.option, ptr %10, i32 0, i32 2
  store ptr @.str, ptr %13, align 8, !tbaa !19
  %14 = getelementptr inbounds nuw %struct.option, ptr %10, i32 0, i32 3
  store ptr %9, ptr %14, align 8, !tbaa !20
  %15 = getelementptr inbounds nuw %struct.option, ptr %10, i32 0, i32 5
  store ptr @.str.1, ptr %15, align 8, !tbaa !21
  %16 = getelementptr inbounds nuw %struct.option, ptr %10, i32 0, i32 6
  store i32 2, ptr %16, align 8, !tbaa !22
  %17 = getelementptr inbounds %struct.option, ptr %10, i64 1
  %18 = getelementptr inbounds nuw %struct.option, ptr %17, i32 0, i32 0
  store i32 0, ptr %18, align 8, !tbaa !15
  call void @git_config(ptr noundef @git_default_config, ptr noundef null)
  %19 = load i32, ptr %5, align 4, !tbaa !4
  %20 = load ptr, ptr %6, align 8, !tbaa !8
  %21 = load ptr, ptr %7, align 8, !tbaa !11
  %22 = getelementptr inbounds [2 x %struct.option], ptr %10, i64 0, i64 0
  %23 = call i32 @parse_options(i32 noundef %19, ptr noundef %20, ptr noundef %21, ptr noundef %22, ptr noundef @update_server_info_usage, i32 noundef 0)
  store i32 %23, ptr %5, align 4, !tbaa !4
  %24 = load i32, ptr %5, align 4, !tbaa !4
  %25 = icmp sgt i32 %24, 0
  br i1 %25, label %26, label %28

26:                                               ; preds = %4
  %27 = getelementptr inbounds [2 x %struct.option], ptr %10, i64 0, i64 0
  call void @usage_with_options(ptr noundef @update_server_info_usage, ptr noundef %27) #7
  unreachable

28:                                               ; preds = %4
  %29 = load ptr, ptr @the_repository, align 8, !tbaa !13
  %30 = load i32, ptr %9, align 4, !tbaa !4
  %31 = call i32 @update_server_info(ptr noundef %29, i32 noundef %30)
  %32 = icmp ne i32 %31, 0
  %33 = xor i1 %32, true
  %34 = xor i1 %33, true
  %35 = zext i1 %34 to i32
  call void @llvm.lifetime.end.p0(i64 176, ptr %10) #6
  call void @llvm.lifetime.end.p0(i64 4, ptr %9) #6
  ret i32 %35
}

; Function Attrs: nocallback nofree nosync nounwind willreturn memory(argmem: readwrite)
declare void @llvm.lifetime.start.p0(i64 immarg, ptr captures(none)) #1

; Function Attrs: nocallback nofree nounwind willreturn memory(argmem: write)
declare void @llvm.memset.p0.i64(ptr writeonly captures(none), i8, i64, i1 immarg) #2

; Function Attrs: inlinehint nounwind uwtable
define internal void @git_config(ptr noundef %0, ptr noundef %1) #3 {
  %3 = alloca ptr, align 8
  %4 = alloca ptr, align 8
  store ptr %0, ptr %3, align 8, !tbaa !23
  store ptr %1, ptr %4, align 8, !tbaa !23
  %5 = load ptr, ptr @the_repository, align 8, !tbaa !13
  %6 = load ptr, ptr %3, align 8, !tbaa !23
  %7 = load ptr, ptr %4, align 8, !tbaa !23
  call void @repo_config(ptr noundef %5, ptr noundef %6, ptr noundef %7)
  ret void
}

declare i32 @git_default_config(ptr noundef, ptr noundef, ptr noundef, ptr noundef) #4

declare i32 @parse_options(i32 noundef, ptr noundef, ptr noundef, ptr noundef, ptr noundef, i32 noundef) #4

; Function Attrs: noreturn
declare void @usage_with_options(ptr noundef, ptr noundef) #5

declare i32 @update_server_info(ptr noundef, i32 noundef) #4

; Function Attrs: nocallback nofree nosync nounwind willreturn memory(argmem: readwrite)
declare void @llvm.lifetime.end.p0(i64 immarg, ptr captures(none)) #1

declare void @repo_config(ptr noundef, ptr noundef, ptr noundef) #4


!llvm.module.flags = !{!0, !1, !2, !3}

!0 = !{i32 1, !"wchar_size", i32 4}
!1 = !{i32 8, !"PIC Level", i32 2}
!2 = !{i32 7, !"PIE Level", i32 2}
!3 = !{i32 7, !"uwtable", i32 2}
!4 = !{!5, !5, i64 0}
!5 = !{!"int", !6, i64 0}
!6 = !{!"omnipotent char", !7, i64 0}
!7 = !{!"Simple C/C++ TBAA"}
!8 = !{!9, !9, i64 0}
!9 = !{!"p2 omnipotent char", !10, i64 0}
!10 = !{!"any pointer", !6, i64 0}
!11 = !{!12, !12, i64 0}
!12 = !{!"p1 omnipotent char", !10, i64 0}
!13 = !{!14, !14, i64 0}
!14 = !{!"p1 _ZTS10repository", !10, i64 0}
!15 = !{!16, !5, i64 0}
!16 = !{!"option", !5, i64 0, !5, i64 4, !12, i64 8, !10, i64 16, !12, i64 24, !12, i64 32, !5, i64 40, !10, i64 48, !17, i64 56, !10, i64 64, !17, i64 72, !10, i64 80}
!17 = !{!"long", !6, i64 0}
!18 = !{!16, !5, i64 4}
!19 = !{!16, !12, i64 8}
!20 = !{!16, !10, i64 16}
!21 = !{!16, !12, i64 32}
!22 = !{!16, !5, i64 40}
!23 = !{!10, !10, i64 0}
