; ModuleID = 'bench/git/original/update-server-info.ll'
source_filename = "bench/git/original/update-server-info.ll"
target datalayout = "e-m:e-p270:32:32-p271:32:32-p272:64:64-i64:64-i128:128-f80:128-n8:16:32:64-S128"
target triple = "x86_64-pc-linux-gnu"

%struct.option = type { i32, i32, ptr, ptr, ptr, ptr, i32, ptr, i64, ptr, i64, ptr }

@.str = private unnamed_addr constant [6 x i8] c"force\00", align 1
@.str.1 = private unnamed_addr constant [35 x i8] c"update the info files from scratch\00", align 1
@update_server_info_usage = internal constant [2 x ptr] [ptr @.str.2, ptr null], align 16
@the_repository = external local_unnamed_addr global ptr, align 8
@.str.2 = private unnamed_addr constant [38 x i8] c"git update-server-info [-f | --force]\00", align 1

; Function Attrs: nounwind uwtable
define dso_local range(i32 0, 2) i32 @cmd_update_server_info(i32 noundef %0, ptr noundef %1, ptr noundef %2, ptr noundef readnone captures(none) %3) local_unnamed_addr #0 {
  %5 = alloca i32, align 4
  %6 = alloca [2 x %struct.option], align 16
  call void @llvm.lifetime.start.p0(i64 4, ptr nonnull %5) #5
  store i32 0, ptr %5, align 4, !tbaa !4
  call void @llvm.lifetime.start.p0(i64 176, ptr nonnull %6) #5
  %7 = getelementptr inbounds nuw i8, ptr %6, i64 16
  call void @llvm.memset.p0.i64(ptr noundef nonnull align 16 dereferenceable(176) %7, i8 0, i64 160, i1 false)
  store i32 8, ptr %6, align 16, !tbaa !8
  %8 = getelementptr inbounds nuw i8, ptr %6, i64 4
  store i32 102, ptr %8, align 4, !tbaa !13
  %9 = getelementptr inbounds nuw i8, ptr %6, i64 8
  store ptr @.str, ptr %9, align 8, !tbaa !14
  %10 = getelementptr inbounds nuw i8, ptr %6, i64 16
  store ptr %5, ptr %10, align 16, !tbaa !15
  %11 = getelementptr inbounds nuw i8, ptr %6, i64 32
  store ptr @.str.1, ptr %11, align 16, !tbaa !16
  %12 = getelementptr inbounds nuw i8, ptr %6, i64 40
  store i32 2, ptr %12, align 8, !tbaa !17
  %13 = load ptr, ptr @the_repository, align 8, !tbaa !18
  call void @repo_config(ptr noundef %13, ptr noundef nonnull @git_default_config, ptr noundef null) #5
  %14 = call i32 @parse_options(i32 noundef %0, ptr noundef %1, ptr noundef %2, ptr noundef nonnull %6, ptr noundef nonnull @update_server_info_usage, i32 noundef 0) #5
  %15 = icmp sgt i32 %14, 0
  br i1 %15, label %16, label %17

16:                                               ; preds = %4
  call void @usage_with_options(ptr noundef nonnull @update_server_info_usage, ptr noundef nonnull %6) #6
  unreachable

17:                                               ; preds = %4
  %18 = load ptr, ptr @the_repository, align 8, !tbaa !18
  %19 = load i32, ptr %5, align 4, !tbaa !4
  %20 = call i32 @update_server_info(ptr noundef %18, i32 noundef %19) #5
  %21 = icmp ne i32 %20, 0
  %22 = zext i1 %21 to i32
  call void @llvm.lifetime.end.p0(i64 176, ptr nonnull %6) #5
  call void @llvm.lifetime.end.p0(i64 4, ptr nonnull %5) #5
  ret i32 %22
}

; Function Attrs: mustprogress nocallback nofree nosync nounwind willreturn memory(argmem: readwrite)
declare void @llvm.lifetime.start.p0(i64 immarg, ptr captures(none)) #1

; Function Attrs: mustprogress nocallback nofree nounwind willreturn memory(argmem: write)
declare void @llvm.memset.p0.i64(ptr writeonly captures(none), i8, i64, i1 immarg) #2

declare i32 @git_default_config(ptr noundef, ptr noundef, ptr noundef, ptr noundef) #3

declare i32 @parse_options(i32 noundef, ptr noundef, ptr noundef, ptr noundef, ptr noundef, i32 noundef) local_unnamed_addr #3

; Function Attrs: noreturn
declare void @usage_with_options(ptr noundef, ptr noundef) local_unnamed_addr #4

declare i32 @update_server_info(ptr noundef, i32 noundef) local_unnamed_addr #3

; Function Attrs: mustprogress nocallback nofree nosync nounwind willreturn memory(argmem: readwrite)
declare void @llvm.lifetime.end.p0(i64 immarg, ptr captures(none)) #1

declare void @repo_config(ptr noundef, ptr noundef, ptr noundef) local_unnamed_addr #3


!llvm.module.flags = !{!0, !1, !2, !3}

!0 = !{i32 1, !"wchar_size", i32 4}
!1 = !{i32 8, !"PIC Level", i32 2}
!2 = !{i32 7, !"PIE Level", i32 2}
!3 = !{i32 7, !"uwtable", i32 2}
!4 = !{!5, !5, i64 0}
!5 = !{!"int", !6, i64 0}
!6 = !{!"omnipotent char", !7, i64 0}
!7 = !{!"Simple C/C++ TBAA"}
!8 = !{!9, !5, i64 0}
!9 = !{!"option", !5, i64 0, !5, i64 4, !10, i64 8, !11, i64 16, !10, i64 24, !10, i64 32, !5, i64 40, !11, i64 48, !12, i64 56, !11, i64 64, !12, i64 72, !11, i64 80}
!10 = !{!"p1 omnipotent char", !11, i64 0}
!11 = !{!"any pointer", !6, i64 0}
!12 = !{!"long", !6, i64 0}
!13 = !{!9, !5, i64 4}
!14 = !{!9, !10, i64 8}
!15 = !{!9, !11, i64 16}
!16 = !{!9, !10, i64 32}
!17 = !{!9, !5, i64 40}
!18 = !{!19, !19, i64 0}
!19 = !{!"p1 _ZTS10repository", !11, i64 0}
